target datalayout = "e-m:e-p270:32:32-p271:32:32-p272:64:64-i64:64-i128:128-f80:128-n8:16:32:64-S128"
target triple = "x86_64-pc-linux-gnu"

%union.SourceSpan = type { i64 }
%union.anon.53 = type { %struct.anon.54 }
%struct.anon.54 = type { ptr, ptr }
%union.anon.2 = type { ptr }
%union.anon.3 = type { i16 }
%union.anon.4 = type { %struct.FuncDecl }
%struct.FuncDecl = type { i32, [4 x i8], %struct.Signature_, i32, i32, %union.anon.11 }
%struct.Signature_ = type <{ %struct.CalleeAttributes, i16, i8, i32, i32, [4 x i8], ptr }>
%struct.CalleeAttributes = type { i8 }
%union.anon.11 = type { %struct.anon.12 }
%struct.anon.12 = type { i16, %union.anon.13 }
%union.anon.13 = type { ptr }
%struct.Vmem = type { ptr, i64, i64 }
%struct.Decl_ = type { ptr, ptr, %union.SourceSpan, i64, %union.anon.2, i32, %union.anon.3, i64, ptr, ptr, ptr, %union.anon.4 }
%struct.VarDecl_ = type { i32, i32, %union.anon.17, %union.anon.18 }
%union.anon.17 = type { ptr }
%union.anon.18 = type { %struct.anon.19 }
%struct.anon.19 = type { ptr, %union.SourceSpan }
%struct.TypeInfo_ = type { i16, ptr, %union.SourceSpan, %union.anon.53 }

@decl_arena = external global %struct.Vmem, align 8
@type_info_arena = external global %struct.Vmem, align 8

; Function Attrs: nounwind uwtable
define internal i32 @type_infoid(ptr noundef %0) #0 {
  %2 = alloca ptr, align 8
  store ptr %0, ptr %2, align 8
  %3 = load ptr, ptr %2, align 8
  %4 = load ptr, ptr @type_info_arena, align 8
  %5 = ptrtoint ptr %3 to i64
  %6 = ptrtoint ptr %4 to i64
  %7 = sub i64 %5, %6
  %8 = sdiv exact i64 %7, 40
  %9 = trunc i64 %8 to i32
  ret i32 %9
}

; Function Attrs: nounwind uwtable
define internal ptr @type_info_calloc() #0 {
  %1 = call ptr @vmem_alloc(ptr noundef @type_info_arena, i64 noundef 40)
  ret ptr %1
}

; Function Attrs: nounwind uwtable
define internal ptr @decl_calloc() #0 {
  %1 = call ptr @vmem_alloc(ptr noundef @decl_arena, i64 noundef 136)
  ret ptr %1
}

; Function Attrs: nounwind uwtable
define dso_local ptr @decl_new_generated_var(ptr noundef %0, i32 noundef %1, i64 %2) #0 {
  %4 = alloca %union.SourceSpan, align 8
  %5 = alloca ptr, align 8
  %6 = alloca ptr, align 8
  %7 = alloca %union.SourceSpan, align 8
  %8 = alloca ptr, align 8
  %9 = alloca %union.SourceSpan, align 8
  %10 = alloca ptr, align 8
  %11 = alloca i32, align 4
  %12 = alloca ptr, align 8
  %13 = getelementptr inbounds %union.SourceSpan, ptr %9, i32 0, i32 0
  store i64 %2, ptr %13, align 8
  store ptr %0, ptr %10, align 8
  store i32 %1, ptr %11, align 4
  %14 = call ptr @decl_calloc()
  store ptr %14, ptr %12, align 8
  %15 = load ptr, ptr %12, align 8
  %16 = getelementptr inbounds %struct.Decl_, ptr %15, i32 0, i32 3
  %17 = load i64, ptr %16, align 8
  %18 = and i64 %17, -128
  %19 = or i64 %18, 26
  store i64 %19, ptr %16, align 8
  %20 = load ptr, ptr %12, align 8
  %21 = getelementptr inbounds %struct.Decl_, ptr %20, i32 0, i32 2
  call void @llvm.memcpy.p0.p0.i64(ptr align 8 %21, ptr align 8 %9, i64 8, i1 false)
  %22 = load ptr, ptr %12, align 8
  %23 = getelementptr inbounds %struct.Decl_, ptr %22, i32 0, i32 0
  store ptr null, ptr %23, align 8
  %24 = load i32, ptr %11, align 4
  %25 = load ptr, ptr %12, align 8
  %26 = getelementptr inbounds %struct.Decl_, ptr %25, i32 0, i32 11
  %27 = load i32, ptr %26, align 8
  %28 = and i32 %24, 255
  %29 = and i32 %27, -256
  %30 = or i32 %29, %28
  store i32 %30, ptr %26, align 8
  %31 = load ptr, ptr %10, align 8
  %32 = load ptr, ptr %12, align 8
  %33 = getelementptr inbounds %struct.Decl_, ptr %32, i32 0, i32 10
  store ptr %31, ptr %33, align 8
  %34 = load ptr, ptr %10, align 8
  %35 = icmp ne ptr %34, null
  br i1 %35, label %36, label %39

36:                                               ; preds = %3
  %37 = load ptr, ptr %10, align 8
  %38 = call i32 @type_alloca_alignment(ptr noundef %37)
  br label %40

39:                                               ; preds = %3
  br label %40

40:                                               ; preds = %39, %36
  %41 = phi i32 [ %38, %36 ], [ 0, %39 ]
  %42 = load ptr, ptr %12, align 8
  %43 = getelementptr inbounds %struct.Decl_, ptr %42, i32 0, i32 5
  store i32 %41, ptr %43, align 8
  %44 = load ptr, ptr %10, align 8
  %45 = getelementptr inbounds %union.SourceSpan, ptr %9, i32 0, i32 0
  %46 = load i64, ptr %45, align 8
  store i64 %46, ptr %7, align 8
  store ptr %44, ptr %8, align 8
  %47 = load ptr, ptr %8, align 8
  %48 = load i64, ptr %7, align 8
  store i64 %48, ptr %4, align 8
  store ptr %47, ptr %5, align 8
  %49 = call ptr @type_info_calloc()
  store ptr %49, ptr %6, align 8
  %50 = load ptr, ptr %6, align 8
  %51 = load i16, ptr %50, align 8
  %52 = and i16 %51, -505
  %53 = or i16 %52, 8
  store i16 %53, ptr %50, align 8
  %54 = load ptr, ptr %6, align 8
  %55 = load i16, ptr %54, align 8
  %56 = and i16 %55, -8
  %57 = or i16 %56, 2
  store i16 %57, ptr %54, align 8
  %58 = load ptr, ptr %5, align 8
  %59 = load ptr, ptr %6, align 8
  %60 = getelementptr inbounds %struct.TypeInfo_, ptr %59, i32 0, i32 1
  store ptr %58, ptr %60, align 8
  %61 = load ptr, ptr %6, align 8
  %62 = getelementptr inbounds %struct.TypeInfo_, ptr %61, i32 0, i32 2
  call void @llvm.memcpy.p0.p0.i64(ptr align 8 %62, ptr align 8 %4, i64 8, i1 false)
  %63 = load ptr, ptr %6, align 8
  %64 = call i32 @type_infoid(ptr noundef %63)
  %65 = load ptr, ptr %12, align 8
  %66 = getelementptr inbounds %struct.Decl_, ptr %65, i32 0, i32 11
  %67 = getelementptr inbounds %struct.VarDecl_, ptr %66, i32 0, i32 1
  store i32 %64, ptr %67, align 4
  %68 = load ptr, ptr %12, align 8
  %69 = getelementptr inbounds %struct.Decl_, ptr %68, i32 0, i32 3
  %70 = load i64, ptr %69, align 8
  %71 = and i64 %70, -897
  %72 = or i64 %71, 256
  store i64 %72, ptr %69, align 8
  %73 = load ptr, ptr %12, align 8
  ret ptr %73
}