; Function Attrs: nounwind uwtable
define dso_local noundef ptr @decl_new_generated_var(ptr noundef %0, i32 noundef %1, i64 %2) local_unnamed_addr #0 {
  %4 = tail call ptr @vmem_alloc(ptr noundef nonnull @decl_arena, i64 noundef 136) #9
  %5 = getelementptr inbounds i8, ptr %4, i64 24
  %6 = load i64, ptr %5, align 8
  %7 = and i64 %6, -128
  %8 = or disjoint i64 %7, 26
  store i64 %8, ptr %5, align 8
  %9 = getelementptr inbounds i8, ptr %4, i64 16
  store i64 %2, ptr %9, align 8
  store ptr null, ptr %4, align 8
  %10 = getelementptr inbounds i8, ptr %4, i64 80
  %11 = load i32, ptr %10, align 8
  %12 = and i32 %1, 255
  %13 = and i32 %11, -256
  %14 = or disjoint i32 %13, %12
  store i32 %14, ptr %10, align 8
  %15 = getelementptr inbounds i8, ptr %4, i64 72
  store ptr %0, ptr %15, align 8
  %.not = icmp eq ptr %0, null
  br i1 %.not, label %18, label %16

16:                                               ; preds = %3
  %17 = tail call i32 @type_alloca_alignment(ptr noundef nonnull %0) #9
  br label %18

18:                                               ; preds = %3, %16
  %19 = phi i32 [ %17, %16 ], [ 0, %3 ]
  %20 = getelementptr inbounds i8, ptr %4, i64 40
  store i32 %19, ptr %20, align 8
  %21 = tail call ptr @vmem_alloc(ptr noundef nonnull @type_info_arena, i64 noundef 40) #9
  %22 = load i16, ptr %21, align 8
  %23 = and i16 %22, -512
  %24 = or disjoint i16 %23, 10
  store i16 %24, ptr %21, align 8
  %25 = getelementptr inbounds i8, ptr %21, i64 8
  store ptr %0, ptr %25, align 8
  %26 = getelementptr inbounds i8, ptr %21, i64 16
  store i64 %2, ptr %26, align 8
  %27 = load ptr, ptr @type_info_arena, align 8
  %28 = ptrtoint ptr %21 to i64
  %29 = ptrtoint ptr %27 to i64
  %30 = sub i64 %28, %29
  %31 = sdiv exact i64 %30, 40
  %32 = trunc i64 %31 to i32
  %33 = getelementptr inbounds i8, ptr %4, i64 84
  store i32 %32, ptr %33, align 4
  %34 = load i64, ptr %5, align 8
  %35 = and i64 %34, -897
  %36 = or disjoint i64 %35, 256
  store i64 %36, ptr %5, align 8
  ret ptr %4
}